; Function Attrs: nounwind uwtable
define i32 @Abc_FrameReadMode(ptr noundef %0) local_unnamed_addr #1 {
  %2 = tail call ptr @Cmd_FlagReadByName(ptr noundef %0, ptr noundef nonnull @.str.3) #20
  %3 = icmp eq ptr %2, null
  br i1 %3, label %7, label %4

4:                                                ; preds = %1
  %5 = tail call i64 @strtol(ptr noundef nonnull captures(none) %2, ptr noundef null, i32 noundef 10) #20
  %6 = trunc i64 %5 to i32
  br label %7

7:                                                ; preds = %1, %4
  %.0 = phi i32 [ %6, %4 ], [ 0, %1 ]
  ret i32 %.0
}